target datalayout = "e-m:e-p270:32:32-p271:32:32-p272:64:64-i64:64-i128:128-f80:128-n8:16:32:64-S128"
target triple = "x86_64-pc-linux-gnu"

%struct.H5SM_compare_udata_t = type { ptr, i32, i32 }
%struct.H5SM_sohm_t = type { i32, i32, i32, %union.anon }
%union.anon = type { %struct.H5O_mesg_loc_t }
%struct.H5O_mesg_loc_t = type { i32, i64 }
%struct.H5SM_mesg_key_t = type { ptr, ptr, ptr, i64, %struct.H5SM_sohm_t }

@H5SM_init_g = external global i8, align 1
@H5_libterm_g = external global i8, align 1

; Function Attrs: nounwind uwtable
define internal i32 @H5SM__compare_cb(ptr noundef %0, i64 noundef %1, ptr noundef %2) #0 {
  %4 = alloca ptr, align 8
  %5 = alloca i64, align 8
  %6 = alloca ptr, align 8
  %7 = alloca ptr, align 8
  store ptr %0, ptr %4, align 8, !tbaa !3
  store i64 %1, ptr %5, align 8, !tbaa !30
  store ptr %2, ptr %6, align 8, !tbaa !3
  call void @llvm.lifetime.start.p0(i64 8, ptr %7) #6
  %8 = load ptr, ptr %6, align 8, !tbaa !3
  store ptr %8, ptr %7, align 8, !tbaa !39
  %9 = load i8, ptr @H5SM_init_g, align 1, !tbaa !11, !range !13, !noundef !14
  %10 = trunc i8 %9 to i1
  br i1 %10, label %15, label %11

11:                                               ; preds = %3
  %12 = load i8, ptr @H5_libterm_g, align 1, !tbaa !11, !range !13, !noundef !14
  %13 = trunc i8 %12 to i1
  %14 = xor i1 %13, true
  br label %15

15:                                               ; preds = %11, %3
  %16 = phi i1 [ true, %3 ], [ %14, %11 ]
  %17 = xor i1 %16, true
  %18 = xor i1 %17, true
  %19 = zext i1 %18 to i32
  %20 = sext i32 %19 to i64
  %21 = call i64 @llvm.expect.i64(i64 %20, i64 1)
  %22 = icmp ne i64 %21, 0
  br i1 %22, label %23, label %58

23:                                               ; preds = %15
  %24 = load ptr, ptr %7, align 8, !tbaa !39
  %25 = getelementptr inbounds nuw %struct.H5SM_compare_udata_t, ptr %24, i32 0, i32 0
  %26 = load ptr, ptr %25, align 8, !tbaa !27
  %27 = getelementptr inbounds nuw %struct.H5SM_mesg_key_t, ptr %26, i32 0, i32 3
  %28 = load i64, ptr %27, align 8, !tbaa !41
  %29 = load i64, ptr %5, align 8, !tbaa !30
  %30 = icmp ugt i64 %28, %29
  br i1 %30, label %31, label %34

31:                                               ; preds = %23
  %32 = load ptr, ptr %7, align 8, !tbaa !39
  %33 = getelementptr inbounds nuw %struct.H5SM_compare_udata_t, ptr %32, i32 0, i32 2
  store i32 1, ptr %33, align 4, !tbaa !38
  br label %57

34:                                               ; preds = %23
  %35 = load ptr, ptr %7, align 8, !tbaa !39
  %36 = getelementptr inbounds nuw %struct.H5SM_compare_udata_t, ptr %35, i32 0, i32 0
  %37 = load ptr, ptr %36, align 8, !tbaa !27
  %38 = getelementptr inbounds nuw %struct.H5SM_mesg_key_t, ptr %37, i32 0, i32 3
  %39 = load i64, ptr %38, align 8, !tbaa !41
  %40 = load i64, ptr %5, align 8, !tbaa !30
  %41 = icmp ult i64 %39, %40
  br i1 %41, label %42, label %45

42:                                               ; preds = %34
  %43 = load ptr, ptr %7, align 8, !tbaa !39
  %44 = getelementptr inbounds nuw %struct.H5SM_compare_udata_t, ptr %43, i32 0, i32 2
  store i32 -1, ptr %44, align 4, !tbaa !38
  br label %56

45:                                               ; preds = %34
  %46 = load ptr, ptr %7, align 8, !tbaa !39
  %47 = getelementptr inbounds nuw %struct.H5SM_compare_udata_t, ptr %46, i32 0, i32 0
  %48 = load ptr, ptr %47, align 8, !tbaa !27
  %49 = getelementptr inbounds nuw %struct.H5SM_mesg_key_t, ptr %48, i32 0, i32 2
  %50 = load ptr, ptr %49, align 8, !tbaa !42
  %51 = load ptr, ptr %4, align 8, !tbaa !3
  %52 = load i64, ptr %5, align 8, !tbaa !30
  %53 = call i32 @memcmp(ptr noundef %50, ptr noundef %51, i64 noundef %52) #7
  %54 = load ptr, ptr %7, align 8, !tbaa !39
  %55 = getelementptr inbounds nuw %struct.H5SM_compare_udata_t, ptr %54, i32 0, i32 2
  store i32 %53, ptr %55, align 4, !tbaa !38
  br label %56

56:                                               ; preds = %45, %42
  br label %57

57:                                               ; preds = %56, %31
  br label %58

58:                                               ; preds = %57, %15
  call void @llvm.lifetime.end.p0(i64 8, ptr %7) #6
  ret i32 0
}