; Function Attrs: mustprogress nofree nounwind willreturn memory(read, argmem: readwrite, inaccessiblemem: none) uwtable
define internal noundef i32 @H5SM__compare_cb(ptr noundef readonly captures(none) %0, i64 noundef %1, ptr noundef captures(none) %2) #3 {
  %4 = load i8, ptr @H5SM_init_g, align 1, !tbaa !3, !range !7, !noundef !8
  %5 = trunc nuw i8 %4 to i1
  %6 = load i8, ptr @H5_libterm_g, align 1, !range !7
  %7 = trunc nuw i8 %6 to i1
  %8 = xor i1 %7, true
  %9 = select i1 %5, i1 true, i1 %8
  br i1 %9, label %10, label %22, !prof !9

10:                                               ; preds = %3
  %11 = load ptr, ptr %2, align 8, !tbaa !25
  %12 = getelementptr inbounds nuw i8, ptr %11, i64 24
  %13 = load i64, ptr %12, align 8, !tbaa !37
  %14 = icmp ugt i64 %13, %1
  br i1 %14, label %.sink.split, label %15

15:                                               ; preds = %10
  %16 = icmp ult i64 %13, %1
  br i1 %16, label %.sink.split, label %17

17:                                               ; preds = %15
  %18 = getelementptr inbounds nuw i8, ptr %11, i64 16
  %19 = load ptr, ptr %18, align 8, !tbaa !38
  %20 = tail call i32 @memcmp(ptr noundef %19, ptr noundef %0, i64 noundef %1) #6
  br label %.sink.split

.sink.split:                                      ; preds = %15, %10, %17
  %.sink = phi i32 [ %20, %17 ], [ 1, %10 ], [ -1, %15 ]
  %21 = getelementptr inbounds nuw i8, ptr %2, i64 12
  store i32 %.sink, ptr %21, align 4, !tbaa !36
  br label %22

22:                                               ; preds = %.sink.split, %3
  ret i32 0
}